; Function Attrs: mustprogress uwtable
define noundef nonnull align 8 dereferenceable(200) ptr @_ZN6icu_7510UnicodeSet10complementEi(ptr noundef nonnull returned align 8 dereferenceable(200) %this, i32 noundef %c) local_unnamed_addr #1 align 2 {
entry:
  %range.i = alloca [3 x i32], align 4
  call void @llvm.lifetime.start.p0(i64 12, ptr nonnull %range.i)
  %bmpSet.i.i = getelementptr inbounds i8, ptr %this, i64 40
  %0 = load ptr, ptr %bmpSet.i.i, align 8
  %cmp.not.i.i = icmp eq ptr %0, null
  %stringSpan.i.i = getelementptr inbounds i8, ptr %this, i64 88
  %1 = load ptr, ptr %stringSpan.i.i, align 8
  %cmp2.i.i = icmp eq ptr %1, null
  %narrow.i.not.i = select i1 %cmp.not.i.i, i1 %cmp2.i.i, i1 false
  br i1 %narrow.i.not.i, label %lor.lhs.false.i, label %_ZN6icu_7510UnicodeSet10complementEii.exit

lor.lhs.false.i:                                  ; preds = %entry
  %fFlags.i.i = getelementptr inbounds i8, ptr %this, i64 32
  %2 = load i8, ptr %fFlags.i.i, align 8
  %3 = and i8 %2, 1
  %tobool3.not.i = icmp eq i8 %3, 0
  br i1 %tobool3.not.i, label %if.then6.i, label %_ZN6icu_7510UnicodeSet10complementEii.exit

if.then6.i:                                       ; preds = %lor.lhs.false.i
  %cmp.i1.i = icmp slt i32 %c, 0
  %spec.select9.i = tail call i32 @llvm.umin.i32(i32 %c, i32 1114111)
  %4 = add nuw nsw i32 %spec.select9.i, 1
  %start.addr.0.i = select i1 %cmp.i1.i, i32 0, i32 %spec.select9.i
  store i32 %start.addr.0.i, ptr %range.i, align 4
  %arrayinit.element.i = getelementptr inbounds i8, ptr %range.i, i64 4
  %add.i = select i1 %cmp.i1.i, i32 1, i32 %4
  store i32 %add.i, ptr %arrayinit.element.i, align 4
  %arrayinit.element7.i = getelementptr inbounds i8, ptr %range.i, i64 8
  store i32 1114112, ptr %arrayinit.element7.i, align 4
  call void @_ZN6icu_7510UnicodeSet11exclusiveOrEPKiia(ptr noundef nonnull align 8 dereferenceable(200) %this, ptr noundef nonnull %range.i, i32 noundef 2, i8 noundef signext 0)
  %pat.i.i = getelementptr inbounds i8, ptr %this, i64 64
  %5 = load ptr, ptr %pat.i.i, align 8
  %tobool.not.i.i = icmp eq ptr %5, null
  br i1 %tobool.not.i.i, label %_ZN6icu_7510UnicodeSet10complementEii.exit, label %if.then.i.i

if.then.i.i:                                      ; preds = %if.then6.i
  tail call void @uprv_free_75(ptr noundef nonnull %5)
  store ptr null, ptr %pat.i.i, align 8
  %patLen.i.i = getelementptr inbounds i8, ptr %this, i64 72
  store i32 0, ptr %patLen.i.i, align 8
  br label %_ZN6icu_7510UnicodeSet10complementEii.exit

_ZN6icu_7510UnicodeSet10complementEii.exit:       ; preds = %entry, %lor.lhs.false.i, %if.then6.i, %if.then.i.i
  call void @llvm.lifetime.end.p0(i64 12, ptr nonnull %range.i)
  ret ptr %this
}